target datalayout = "e-m:e-p270:32:32-p271:32:32-p272:64:64-i64:64-i128:128-f80:128-n8:16:32:64-S128"
target triple = "x86_64-pc-linux-gnu"

%struct._packet_info = type { ptr, ptr, i32, i32, %struct.nstime_t, %struct.nstime_t, %struct.nstime_t, i8, ptr, ptr, ptr, ptr, %struct._address, %struct._address, %struct._address, %struct._address, %struct._address, %struct._address, i32, ptr, i8, [3 x i8], %struct.anon.1, i32, i32, i32, i32, ptr, i8, ptr, ptr, i16, i16, i32, i32, i16, i32, i32, ptr, ptr, ptr, i8, i8, i16, i16, i16, i32, i16, i16, ptr, ptr, ptr, ptr, ptr, i32, i32 }
%struct.nstime_t = type { i64, i32 }
%struct._address = type { i32, i32, ptr, ptr }
%struct.anon.1 = type { i8, [3 x i8] }

@hf_amqp_method_connection_open_virtual_host = internal global i32 0, align 4
@hf_amqp_0_9_method_connection_open_capabilities = internal global i32 0, align 4
@hf_amqp_0_9_method_connection_open_insist = internal global i32 0, align 4
@.str.1473 = private unnamed_addr constant [10 x i8] c"vhost=%s \00", align 1

; Function Attrs: null_pointer_is_valid sspstrong uwtable
define internal i32 @dissect_amqp_0_9_method_connection_open(ptr noundef %0, ptr noundef %1, i32 noundef %2, ptr noundef %3) #0 {
  %5 = alloca ptr, align 8
  %6 = alloca ptr, align 8
  %7 = alloca i32, align 4
  %8 = alloca ptr, align 8
  %9 = alloca ptr, align 8
  store ptr %0, ptr %5, align 8
  store ptr %1, ptr %6, align 8
  store i32 %2, ptr %7, align 4
  store ptr %3, ptr %8, align 8
  call void @llvm.lifetime.start.p0(i64 8, ptr %9) #11
  %10 = load ptr, ptr %8, align 8
  %11 = load i32, ptr @hf_amqp_method_connection_open_virtual_host, align 4
  %12 = load ptr, ptr %5, align 8
  %13 = load i32, ptr %7, align 4
  %14 = load ptr, ptr %6, align 8
  %15 = getelementptr inbounds nuw %struct._packet_info, ptr %14, i32 0, i32 51
  %16 = load ptr, ptr %15, align 8
  %17 = call ptr @proto_tree_add_item_ret_string(ptr noundef %10, i32 noundef %11, ptr noundef %12, i32 noundef %13, i32 noundef 1, i32 noundef 0, ptr noundef %16, ptr noundef %9)
  %18 = load ptr, ptr %6, align 8
  %19 = getelementptr inbounds nuw %struct._packet_info, ptr %18, i32 0, i32 1
  %20 = load ptr, ptr %19, align 8
  %21 = load ptr, ptr %9, align 8
  call void (ptr, i32, ptr, ...) @col_append_fstr(ptr noundef %20, i32 noundef 25, ptr noundef @.str.1473, ptr noundef %21)
  %22 = load ptr, ptr %5, align 8
  %23 = load i32, ptr %7, align 4
  %24 = call zeroext i8 @tvb_get_uint8(ptr noundef %22, i32 noundef %23)
  %25 = zext i8 %24 to i32
  %26 = add i32 1, %25
  %27 = load i32, ptr %7, align 4
  %28 = add i32 %27, %26
  store i32 %28, ptr %7, align 4
  %29 = load ptr, ptr %8, align 8
  %30 = load i32, ptr @hf_amqp_0_9_method_connection_open_capabilities, align 4
  %31 = load ptr, ptr %5, align 8
  %32 = load i32, ptr %7, align 4
  %33 = add i32 %32, 1
  %34 = load ptr, ptr %5, align 8
  %35 = load i32, ptr %7, align 4
  %36 = call zeroext i8 @tvb_get_uint8(ptr noundef %34, i32 noundef %35)
  %37 = zext i8 %36 to i32
  %38 = call ptr @proto_tree_add_item(ptr noundef %29, i32 noundef %30, ptr noundef %31, i32 noundef %33, i32 noundef %37, i32 noundef 0)
  %39 = load ptr, ptr %5, align 8
  %40 = load i32, ptr %7, align 4
  %41 = call zeroext i8 @tvb_get_uint8(ptr noundef %39, i32 noundef %40)
  %42 = zext i8 %41 to i32
  %43 = add i32 1, %42
  %44 = load i32, ptr %7, align 4
  %45 = add i32 %44, %43
  store i32 %45, ptr %7, align 4
  %46 = load ptr, ptr %8, align 8
  %47 = load i32, ptr @hf_amqp_0_9_method_connection_open_insist, align 4
  %48 = load ptr, ptr %5, align 8
  %49 = load i32, ptr %7, align 4
  %50 = call ptr @proto_tree_add_item(ptr noundef %46, i32 noundef %47, ptr noundef %48, i32 noundef %49, i32 noundef 1, i32 noundef 0)
  %51 = load i32, ptr %7, align 4
  call void @llvm.lifetime.end.p0(i64 8, ptr %9) #11
  ret i32 %51
}