; Function Attrs: null_pointer_is_valid sspstrong uwtable
define internal fastcc void @dissect_amqp_0_9_method_connection_open(ptr noundef %0, ptr noundef readonly captures(none) %1, ptr noundef %2) unnamed_addr #0 {
  %4 = alloca ptr, align 8
  call void @llvm.lifetime.start.p0(i64 8, ptr nonnull %4) #14
  %5 = load i32, ptr @hf_amqp_method_connection_open_virtual_host, align 4
  %6 = getelementptr inbounds nuw i8, ptr %1, i64 408
  %7 = load ptr, ptr %6, align 8
  %8 = call ptr @proto_tree_add_item_ret_string(ptr noundef %2, i32 noundef %5, ptr noundef %0, i32 noundef 11, i32 noundef 1, i32 noundef 0, ptr noundef %7, ptr noundef nonnull %4)
  %9 = getelementptr inbounds nuw i8, ptr %1, i64 8
  %10 = load ptr, ptr %9, align 8
  %11 = load ptr, ptr %4, align 8
  call void (ptr, i32, ptr, ...) @col_append_fstr(ptr noundef %10, i32 noundef 25, ptr noundef nonnull @.str.1473, ptr noundef %11)
  %12 = call zeroext i8 @tvb_get_uint8(ptr noundef %0, i32 noundef 11)
  %13 = zext i8 %12 to i32
  %14 = add nuw nsw i32 %13, 12
  %15 = load i32, ptr @hf_amqp_0_9_method_connection_open_capabilities, align 4
  %16 = add nuw nsw i32 %13, 13
  %17 = call zeroext i8 @tvb_get_uint8(ptr noundef %0, i32 noundef %14)
  %18 = zext i8 %17 to i32
  %19 = call ptr @proto_tree_add_item(ptr noundef %2, i32 noundef %15, ptr noundef %0, i32 noundef %16, i32 noundef %18, i32 noundef 0)
  %20 = call zeroext i8 @tvb_get_uint8(ptr noundef %0, i32 noundef %14)
  %21 = zext i8 %20 to i32
  %22 = add nuw nsw i32 %16, %21
  %23 = load i32, ptr @hf_amqp_0_9_method_connection_open_insist, align 4
  %24 = call ptr @proto_tree_add_item(ptr noundef %2, i32 noundef %23, ptr noundef %0, i32 noundef %22, i32 noundef 1, i32 noundef 0)
  call void @llvm.lifetime.end.p0(i64 8, ptr nonnull %4) #14
  ret void
}